target datalayout = "e-m:e-p270:32:32-p271:32:32-p272:64:64-i64:64-i128:128-f80:128-n8:16:32:64-S128"
target triple = "x86_64-unknown-linux-gnu"

%"class.std::__cxx11::basic_string" = type { %"struct.std::__cxx11::basic_string<char>::_Alloc_hider", i64, %union.anon }
%"struct.std::__cxx11::basic_string<char>::_Alloc_hider" = type { ptr }
%union.anon = type { i64, [8 x i8] }
%"struct.node::builtins::CodeCacheInfo" = type { %"class.std::__cxx11::basic_string", %"class.node::builtins::BuiltinCodeCacheData" }
%"class.node::builtins::BuiltinCodeCacheData" = type { ptr, i64, %"class.std::shared_ptr" }
%"class.std::shared_ptr" = type { %"class.std::__shared_ptr" }
%"class.std::__shared_ptr" = type { ptr, %"class.std::__shared_count" }
%"class.std::__shared_count" = type { ptr }

@.str = private unnamed_addr constant [29 x i8] c"<builtins::CodeCacheInfo id=\00", align 1
@.str.1 = private unnamed_addr constant [10 x i8] c", length=\00", align 1
@.str.2 = private unnamed_addr constant [3 x i8] c">\0A\00", align 1

; Function Attrs: mustprogress nounwind uwtable
define dso_local noundef nonnull align 8 dereferenceable(8) ptr @_ZN4nodelsERSoRKNS_8builtins13CodeCacheInfoE(ptr noundef nonnull align 8 dereferenceable(8) %output, ptr noundef nonnull align 8 dereferenceable(64) %info) #4 {
entry:
  %output.addr = alloca ptr, align 8
  %info.addr = alloca ptr, align 8
  store ptr %output, ptr %output.addr, align 8
  store ptr %info, ptr %info.addr, align 8
  %0 = load ptr, ptr %output.addr, align 8
  %call = call noundef nonnull align 8 dereferenceable(8) ptr @_ZStlsISt11char_traitsIcEERSt13basic_ostreamIcT_ES5_PKc(ptr noundef nonnull align 8 dereferenceable(8) %0, ptr noundef @.str)
  %1 = load ptr, ptr %info.addr, align 8
  %id = getelementptr inbounds %"struct.node::builtins::CodeCacheInfo", ptr %1, i32 0, i32 0
  %call1 = call noundef nonnull align 8 dereferenceable(8) ptr @_ZStlsIcSt11char_traitsIcESaIcEERSt13basic_ostreamIT_T0_ES7_RKNSt7__cxx1112basic_stringIS4_S5_T1_EE(ptr noundef nonnull align 8 dereferenceable(8) %call, ptr noundef nonnull align 8 dereferenceable(32) %id)
  %call2 = call noundef nonnull align 8 dereferenceable(8) ptr @_ZStlsISt11char_traitsIcEERSt13basic_ostreamIcT_ES5_PKc(ptr noundef nonnull align 8 dereferenceable(8) %call1, ptr noundef @.str.1)
  %2 = load ptr, ptr %info.addr, align 8
  %data = getelementptr inbounds %"struct.node::builtins::CodeCacheInfo", ptr %2, i32 0, i32 1
  %length = getelementptr inbounds %"class.node::builtins::BuiltinCodeCacheData", ptr %data, i32 0, i32 1
  %3 = load i64, ptr %length, align 8
  %call3 = call noundef nonnull align 8 dereferenceable(8) ptr @_ZNSolsEm(ptr noundef nonnull align 8 dereferenceable(8) %call2, i64 noundef %3)
  %call4 = call noundef nonnull align 8 dereferenceable(8) ptr @_ZStlsISt11char_traitsIcEERSt13basic_ostreamIcT_ES5_PKc(ptr noundef nonnull align 8 dereferenceable(8) %call3, ptr noundef @.str.2)
  %4 = load ptr, ptr %output.addr, align 8
  ret ptr %4
}